target datalayout = "e-m:e-p270:32:32-p271:32:32-p272:64:64-i64:64-i128:128-f80:128-n8:16:32:64-S128"
target triple = "x86_64-pc-linux-gnu"

%struct.VuDev = type { i32, i32, ptr, ptr, %struct.VuDevInflightInfo, i32, %union.pthread_mutex_t, i32, i64, ptr, i64, i64, i8, i16, ptr, ptr, ptr, ptr, ptr, i32, i8 }
%struct.VuDevInflightInfo = type { i32, ptr, i64 }
%union.pthread_mutex_t = type { %struct.__pthread_mutex_s }
%struct.__pthread_mutex_s = type { i32, i32, i32, i32, i32, i16, i16, %struct.__pthread_internal_list }
%struct.__pthread_internal_list = type { ptr, ptr }
%struct.VuVirtq = type { %struct.VuRing, ptr, ptr, i16, i64, i16, i16, i16, i16, i8, i8, i32, ptr, i32, i32, i32, i32, i8, %struct.vhost_vring_addr }
%struct.VuRing = type { i32, ptr, ptr, ptr, i64, i32 }
%struct.vhost_vring_addr = type { i32, i32, i64, i64, i64, i64 }
%struct.VhostUserMsg = type <{ i32, i32, i32, %union.anon, [8 x i32], i32, ptr }>
%union.anon = type { %struct.VhostUserMemory, [8 x i8] }
%struct.VhostUserMemory = type { i32, i32, [8 x %struct.VhostUserMemoryRegion] }
%struct.VhostUserMemoryRegion = type { i64, i64, i64, i64 }
%struct.VuDevIface = type { ptr, ptr, ptr, ptr, ptr, ptr, ptr, ptr, ptr, ptr }
%struct.vhost_vring_state = type { i32, i32 }

; Function Attrs: nounwind uwtable
define internal zeroext i1 @vu_get_vring_base_exec(ptr noundef %0, ptr noundef %1) #0 {
  %3 = alloca ptr, align 8
  %4 = alloca ptr, align 8
  %5 = alloca i32, align 4
  store ptr %0, ptr %3, align 8
  store ptr %1, ptr %4, align 8
  call void @llvm.lifetime.start.p0(i64 4, ptr %5) #13
  %6 = load ptr, ptr %4, align 8
  %7 = getelementptr inbounds nuw %struct.VhostUserMsg, ptr %6, i32 0, i32 3
  %8 = getelementptr inbounds nuw %struct.vhost_vring_state, ptr %7, i32 0, i32 0
  %9 = load i32, ptr %8, align 1
  store i32 %9, ptr %5, align 4
  br label %10

10:                                               ; preds = %2
  br label %11

11:                                               ; preds = %10
  br label %12

12:                                               ; preds = %11
  %13 = load ptr, ptr %3, align 8
  %14 = getelementptr inbounds nuw %struct.VuDev, ptr %13, i32 0, i32 3
  %15 = load ptr, ptr %14, align 8
  %16 = load i32, ptr %5, align 4
  %17 = zext i32 %16 to i64
  %18 = getelementptr inbounds nuw %struct.VuVirtq, ptr %15, i64 %17
  %19 = getelementptr inbounds nuw %struct.VuVirtq, ptr %18, i32 0, i32 5
  %20 = load i16, ptr %19, align 8
  %21 = zext i16 %20 to i32
  %22 = load ptr, ptr %4, align 8
  %23 = getelementptr inbounds nuw %struct.VhostUserMsg, ptr %22, i32 0, i32 3
  %24 = getelementptr inbounds nuw %struct.vhost_vring_state, ptr %23, i32 0, i32 1
  store i32 %21, ptr %24, align 1
  %25 = load ptr, ptr %4, align 8
  %26 = getelementptr inbounds nuw %struct.VhostUserMsg, ptr %25, i32 0, i32 2
  store i32 8, ptr %26, align 1
  %27 = load ptr, ptr %3, align 8
  %28 = getelementptr inbounds nuw %struct.VuDev, ptr %27, i32 0, i32 3
  %29 = load ptr, ptr %28, align 8
  %30 = load i32, ptr %5, align 4
  %31 = zext i32 %30 to i64
  %32 = getelementptr inbounds nuw %struct.VuVirtq, ptr %29, i64 %31
  %33 = getelementptr inbounds nuw %struct.VuVirtq, ptr %32, i32 0, i32 17
  store i8 0, ptr %33, align 8
  %34 = load ptr, ptr %3, align 8
  %35 = getelementptr inbounds nuw %struct.VuDev, ptr %34, i32 0, i32 18
  %36 = load ptr, ptr %35, align 8
  %37 = getelementptr inbounds nuw %struct.VuDevIface, ptr %36, i32 0, i32 5
  %38 = load ptr, ptr %37, align 8
  %39 = icmp ne ptr %38, null
  br i1 %39, label %40, label %48

40:                                               ; preds = %12
  %41 = load ptr, ptr %3, align 8
  %42 = getelementptr inbounds nuw %struct.VuDev, ptr %41, i32 0, i32 18
  %43 = load ptr, ptr %42, align 8
  %44 = getelementptr inbounds nuw %struct.VuDevIface, ptr %43, i32 0, i32 5
  %45 = load ptr, ptr %44, align 8
  %46 = load ptr, ptr %3, align 8
  %47 = load i32, ptr %5, align 4
  call void %45(ptr noundef %46, i32 noundef %47, i1 noundef zeroext false)
  br label %48

48:                                               ; preds = %40, %12
  %49 = load ptr, ptr %3, align 8
  %50 = getelementptr inbounds nuw %struct.VuDev, ptr %49, i32 0, i32 3
  %51 = load ptr, ptr %50, align 8
  %52 = load i32, ptr %5, align 4
  %53 = zext i32 %52 to i64
  %54 = getelementptr inbounds nuw %struct.VuVirtq, ptr %51, i64 %53
  %55 = getelementptr inbounds nuw %struct.VuVirtq, ptr %54, i32 0, i32 13
  %56 = load i32, ptr %55, align 8
  %57 = icmp ne i32 %56, -1
  br i1 %57, label %58, label %75

58:                                               ; preds = %48
  %59 = load ptr, ptr %3, align 8
  %60 = getelementptr inbounds nuw %struct.VuDev, ptr %59, i32 0, i32 3
  %61 = load ptr, ptr %60, align 8
  %62 = load i32, ptr %5, align 4
  %63 = zext i32 %62 to i64
  %64 = getelementptr inbounds nuw %struct.VuVirtq, ptr %61, i64 %63
  %65 = getelementptr inbounds nuw %struct.VuVirtq, ptr %64, i32 0, i32 13
  %66 = load i32, ptr %65, align 8
  %67 = call i32 @close(i32 noundef %66)
  %68 = load ptr, ptr %3, align 8
  %69 = getelementptr inbounds nuw %struct.VuDev, ptr %68, i32 0, i32 3
  %70 = load ptr, ptr %69, align 8
  %71 = load i32, ptr %5, align 4
  %72 = zext i32 %71 to i64
  %73 = getelementptr inbounds nuw %struct.VuVirtq, ptr %70, i64 %72
  %74 = getelementptr inbounds nuw %struct.VuVirtq, ptr %73, i32 0, i32 13
  store i32 -1, ptr %74, align 8
  br label %75

75:                                               ; preds = %58, %48
  %76 = load ptr, ptr %3, align 8
  %77 = getelementptr inbounds nuw %struct.VuDev, ptr %76, i32 0, i32 3
  %78 = load ptr, ptr %77, align 8
  %79 = load i32, ptr %5, align 4
  %80 = zext i32 %79 to i64
  %81 = getelementptr inbounds nuw %struct.VuVirtq, ptr %78, i64 %80
  %82 = getelementptr inbounds nuw %struct.VuVirtq, ptr %81, i32 0, i32 14
  %83 = load i32, ptr %82, align 4
  %84 = icmp ne i32 %83, -1
  br i1 %84, label %85, label %114

85:                                               ; preds = %75
  %86 = load ptr, ptr %3, align 8
  %87 = getelementptr inbounds nuw %struct.VuDev, ptr %86, i32 0, i32 16
  %88 = load ptr, ptr %87, align 8
  %89 = load ptr, ptr %3, align 8
  %90 = load ptr, ptr %3, align 8
  %91 = getelementptr inbounds nuw %struct.VuDev, ptr %90, i32 0, i32 3
  %92 = load ptr, ptr %91, align 8
  %93 = load i32, ptr %5, align 4
  %94 = zext i32 %93 to i64
  %95 = getelementptr inbounds nuw %struct.VuVirtq, ptr %92, i64 %94
  %96 = getelementptr inbounds nuw %struct.VuVirtq, ptr %95, i32 0, i32 14
  %97 = load i32, ptr %96, align 4
  call void %88(ptr noundef %89, i32 noundef %97)
  %98 = load ptr, ptr %3, align 8
  %99 = getelementptr inbounds nuw %struct.VuDev, ptr %98, i32 0, i32 3
  %100 = load ptr, ptr %99, align 8
  %101 = load i32, ptr %5, align 4
  %102 = zext i32 %101 to i64
  %103 = getelementptr inbounds nuw %struct.VuVirtq, ptr %100, i64 %102
  %104 = getelementptr inbounds nuw %struct.VuVirtq, ptr %103, i32 0, i32 14
  %105 = load i32, ptr %104, align 4
  %106 = call i32 @close(i32 noundef %105)
  %107 = load ptr, ptr %3, align 8
  %108 = getelementptr inbounds nuw %struct.VuDev, ptr %107, i32 0, i32 3
  %109 = load ptr, ptr %108, align 8
  %110 = load i32, ptr %5, align 4
  %111 = zext i32 %110 to i64
  %112 = getelementptr inbounds nuw %struct.VuVirtq, ptr %109, i64 %111
  %113 = getelementptr inbounds nuw %struct.VuVirtq, ptr %112, i32 0, i32 14
  store i32 -1, ptr %113, align 4
  br label %114

114:                                              ; preds = %85, %75
  call void @llvm.lifetime.end.p0(i64 4, ptr %5) #13
  ret i1 true
}