; Function Attrs: nounwind uwtable
define internal fastcc void @vu_get_vring_base_exec(ptr noundef %0, ptr noundef nonnull captures(none) initializes((8, 12), (16, 20)) %1) unnamed_addr #3 {
  %3 = getelementptr inbounds nuw i8, ptr %1, i64 12
  %4 = load i32, ptr %3, align 1
  %5 = getelementptr inbounds nuw i8, ptr %0, i64 16
  %6 = load ptr, ptr %5, align 8
  %7 = zext i32 %4 to i64
  %8 = getelementptr inbounds nuw %struct.VuVirtq, ptr %6, i64 %7, i32 5
  %9 = load i16, ptr %8, align 8
  %10 = zext i16 %9 to i32
  %11 = getelementptr inbounds nuw i8, ptr %1, i64 16
  store i32 %10, ptr %11, align 1
  %12 = getelementptr inbounds nuw i8, ptr %1, i64 8
  store i32 8, ptr %12, align 1
  %13 = load ptr, ptr %5, align 8
  %14 = getelementptr inbounds nuw %struct.VuVirtq, ptr %13, i64 %7, i32 17
  store i8 0, ptr %14, align 8
  %15 = getelementptr inbounds nuw i8, ptr %0, i64 176
  %16 = load ptr, ptr %15, align 8
  %17 = getelementptr inbounds nuw i8, ptr %16, i64 40
  %18 = load ptr, ptr %17, align 8
  %.not = icmp eq ptr %18, null
  br i1 %.not, label %20, label %19

19:                                               ; preds = %2
  tail call void %18(ptr noundef nonnull %0, i32 noundef %4, i1 noundef zeroext false) #21
  br label %20

20:                                               ; preds = %19, %2
  %21 = load ptr, ptr %5, align 8
  %22 = getelementptr inbounds nuw %struct.VuVirtq, ptr %21, i64 %7, i32 13
  %23 = load i32, ptr %22, align 8
  %.not28 = icmp eq i32 %23, -1
  br i1 %.not28, label %28, label %24

24:                                               ; preds = %20
  %25 = tail call i32 @close(i32 noundef %23) #21
  %26 = load ptr, ptr %5, align 8
  %27 = getelementptr inbounds nuw %struct.VuVirtq, ptr %26, i64 %7, i32 13
  store i32 -1, ptr %27, align 8
  %.pre = load ptr, ptr %5, align 8
  br label %28

28:                                               ; preds = %24, %20
  %29 = phi ptr [ %.pre, %24 ], [ %21, %20 ]
  %30 = getelementptr inbounds nuw %struct.VuVirtq, ptr %29, i64 %7, i32 14
  %31 = load i32, ptr %30, align 4
  %.not29 = icmp eq i32 %31, -1
  br i1 %.not29, label %41, label %32

32:                                               ; preds = %28
  %33 = getelementptr inbounds nuw i8, ptr %0, i64 160
  %34 = load ptr, ptr %33, align 8
  tail call void %34(ptr noundef nonnull %0, i32 noundef %31) #21
  %35 = load ptr, ptr %5, align 8
  %36 = getelementptr inbounds nuw %struct.VuVirtq, ptr %35, i64 %7, i32 14
  %37 = load i32, ptr %36, align 4
  %38 = tail call i32 @close(i32 noundef %37) #21
  %39 = load ptr, ptr %5, align 8
  %40 = getelementptr inbounds nuw %struct.VuVirtq, ptr %39, i64 %7, i32 14
  store i32 -1, ptr %40, align 4
  br label %41

41:                                               ; preds = %32, %28
  ret void
}